target datalayout = "e-m:e-p270:32:32-p271:32:32-p272:64:64-i64:64-i128:128-f80:128-n8:16:32:64-S128"
target triple = "x86_64-pc-linux-gnu"

%struct.jit_State = type { %struct.GCtrace, ptr, ptr, ptr, ptr, ptr, ptr, i32, i32, i32, i8, i8, %struct.IRType1, i8, %struct.FoldState, ptr, i32, i32, i32, i32, i32, i32, i32, [1 x i32], [5 x %union.TValue], [3 x %union.TValue], ptr, i32, i32, i32, i32, ptr, ptr, i32, i32, i8, ptr, i32, i32, i16, [101 x i16], [258 x i32], [15 x i32], [16 x ptr], [64 x %struct.HotPenalty], i32, [16 x %struct.BPropEntry], i32, %struct.ScEvEntry, ptr, i32, i32, i32, ptr, i32, i32, ptr, ptr, ptr, i64, i64, %union.TValue, ptr, i32, i32 }
%struct.GCtrace = type { %struct.GCRef, i8, i8, i16, i32, i32, %struct.GCRef, ptr, i32, i32, ptr, ptr, %struct.GCRef, %struct.MRef, i32, i32, ptr, i32, i16, i16, i16, i16, i16, i16, i16, i8, i8, i8, i8 }
%struct.GCRef = type { i64 }
%struct.MRef = type { i64 }
%struct.IRType1 = type { i8 }
%struct.FoldState = type { %union.IRIns, [2 x %union.IRIns], [2 x %union.IRIns] }
%union.IRIns = type { %struct.GCRef }
%struct.HotPenalty = type { %struct.MRef, i16, i16 }
%struct.BPropEntry = type { i16, i16, i32 }
%struct.ScEvEntry = type { %struct.MRef, i16, i16, i16, i16, %struct.IRType1, i8 }
%union.TValue = type { i64 }
%struct.anon = type { i16, i16, i16, i16 }
%struct.anon.0 = type { i32, %struct.IRType1, i8, i8, i8 }

; Function Attrs: nounwind uwtable
define internal i32 @aa_escape(ptr noundef %0, ptr noundef %1, ptr noundef %2) #0 {
  %4 = alloca i32, align 4
  %5 = alloca ptr, align 8
  %6 = alloca ptr, align 8
  %7 = alloca ptr, align 8
  %8 = alloca i32, align 4
  %9 = alloca i32, align 4
  store ptr %0, ptr %5, align 8, !tbaa !4
  store ptr %1, ptr %6, align 8, !tbaa !32
  store ptr %2, ptr %7, align 8, !tbaa !32
  call void @llvm.lifetime.start.p0(i64 4, ptr %8) #5
  %10 = load ptr, ptr %6, align 8, !tbaa !32
  %11 = load ptr, ptr %5, align 8, !tbaa !4
  %12 = getelementptr inbounds nuw %struct.jit_State, ptr %11, i32 0, i32 0
  %13 = getelementptr inbounds nuw %struct.GCtrace, ptr %12, i32 0, i32 7
  %14 = load ptr, ptr %13, align 8, !tbaa !14
  %15 = ptrtoint ptr %10 to i64
  %16 = ptrtoint ptr %14 to i64
  %17 = sub i64 %15, %16
  %18 = sdiv exact i64 %17, 8
  %19 = trunc i64 %18 to i32
  store i32 %19, ptr %8, align 4, !tbaa !9
  %20 = load ptr, ptr %6, align 8, !tbaa !32
  %21 = getelementptr inbounds nuw %union.IRIns, ptr %20, i32 1
  store ptr %21, ptr %6, align 8, !tbaa !32
  br label %22

22:                                               ; preds = %59, %3
  %23 = load ptr, ptr %6, align 8, !tbaa !32
  %24 = load ptr, ptr %7, align 8, !tbaa !32
  %25 = icmp ult ptr %23, %24
  br i1 %25, label %26, label %62

26:                                               ; preds = %22
  %27 = load ptr, ptr %6, align 8, !tbaa !32
  %28 = getelementptr inbounds nuw %struct.anon, ptr %27, i32 0, i32 1
  %29 = load i16, ptr %28, align 2, !tbaa !11
  %30 = zext i16 %29 to i32
  %31 = load i32, ptr %8, align 4, !tbaa !9
  %32 = icmp eq i32 %30, %31
  br i1 %32, label %33, label %58

33:                                               ; preds = %26
  %34 = load ptr, ptr %6, align 8, !tbaa !32
  %35 = getelementptr inbounds nuw %struct.anon.0, ptr %34, i32 0, i32 2
  %36 = load i8, ptr %35, align 1, !tbaa !11
  %37 = zext i8 %36 to i32
  %38 = icmp eq i32 %37, 74
  br i1 %38, label %57, label %39

39:                                               ; preds = %33
  %40 = load ptr, ptr %6, align 8, !tbaa !32
  %41 = getelementptr inbounds nuw %struct.anon.0, ptr %40, i32 0, i32 2
  %42 = load i8, ptr %41, align 1, !tbaa !11
  %43 = zext i8 %42 to i32
  %44 = icmp eq i32 %43, 75
  br i1 %44, label %57, label %45

45:                                               ; preds = %39
  %46 = load ptr, ptr %6, align 8, !tbaa !32
  %47 = getelementptr inbounds nuw %struct.anon.0, ptr %46, i32 0, i32 2
  %48 = load i8, ptr %47, align 1, !tbaa !11
  %49 = zext i8 %48 to i32
  %50 = icmp eq i32 %49, 76
  br i1 %50, label %57, label %51

51:                                               ; preds = %45
  %52 = load ptr, ptr %6, align 8, !tbaa !32
  %53 = getelementptr inbounds nuw %struct.anon.0, ptr %52, i32 0, i32 2
  %54 = load i8, ptr %53, align 1, !tbaa !11
  %55 = zext i8 %54 to i32
  %56 = icmp eq i32 %55, 77
  br i1 %56, label %57, label %58

57:                                               ; preds = %51, %45, %39, %33
  store i32 1, ptr %4, align 4
  store i32 1, ptr %9, align 4
  br label %63

58:                                               ; preds = %51, %26
  br label %59

59:                                               ; preds = %58
  %60 = load ptr, ptr %6, align 8, !tbaa !32
  %61 = getelementptr inbounds nuw %union.IRIns, ptr %60, i32 1
  store ptr %61, ptr %6, align 8, !tbaa !32
  br label %22, !llvm.loop !75

62:                                               ; preds = %22
  store i32 0, ptr %4, align 4
  store i32 1, ptr %9, align 4
  br label %63

63:                                               ; preds = %62, %57
  call void @llvm.lifetime.end.p0(i64 4, ptr %8) #5
  %64 = load i32, ptr %4, align 4
  ret i32 %64
}

; Function Attrs: nounwind uwtable
define internal i32 @aa_table(ptr noundef %0, i32 noundef %1, i32 noundef %2) #0 {
  %4 = alloca i32, align 4
  %5 = alloca ptr, align 8
  %6 = alloca i32, align 4
  %7 = alloca i32, align 4
  %8 = alloca ptr, align 8
  %9 = alloca ptr, align 8
  %10 = alloca i32, align 4
  %11 = alloca i32, align 4
  %12 = alloca i32, align 4
  %13 = alloca ptr, align 8
  store ptr %0, ptr %5, align 8, !tbaa !4
  store i32 %1, ptr %6, align 4, !tbaa !9
  store i32 %2, ptr %7, align 4, !tbaa !9
  call void @llvm.lifetime.start.p0(i64 8, ptr %8) #5
  %14 = load ptr, ptr %5, align 8, !tbaa !4
  %15 = getelementptr inbounds nuw %struct.jit_State, ptr %14, i32 0, i32 0
  %16 = getelementptr inbounds nuw %struct.GCtrace, ptr %15, i32 0, i32 7
  %17 = load ptr, ptr %16, align 8, !tbaa !14
  %18 = load i32, ptr %6, align 4, !tbaa !9
  %19 = zext i32 %18 to i64
  %20 = getelementptr inbounds nuw %union.IRIns, ptr %17, i64 %19
  store ptr %20, ptr %8, align 8, !tbaa !32
  call void @llvm.lifetime.start.p0(i64 8, ptr %9) #5
  %21 = load ptr, ptr %5, align 8, !tbaa !4
  %22 = getelementptr inbounds nuw %struct.jit_State, ptr %21, i32 0, i32 0
  %23 = getelementptr inbounds nuw %struct.GCtrace, ptr %22, i32 0, i32 7
  %24 = load ptr, ptr %23, align 8, !tbaa !14
  %25 = load i32, ptr %7, align 4, !tbaa !9
  %26 = zext i32 %25 to i64
  %27 = getelementptr inbounds nuw %union.IRIns, ptr %24, i64 %26
  store ptr %27, ptr %9, align 8, !tbaa !32
  call void @llvm.lifetime.start.p0(i64 4, ptr %10) #5
  call void @llvm.lifetime.start.p0(i64 4, ptr %11) #5
  %28 = load ptr, ptr %8, align 8, !tbaa !32
  %29 = getelementptr inbounds nuw %struct.anon.0, ptr %28, i32 0, i32 2
  %30 = load i8, ptr %29, align 1, !tbaa !11
  %31 = zext i8 %30 to i32
  %32 = icmp eq i32 %31, 81
  br i1 %32, label %39, label %33

33:                                               ; preds = %3
  %34 = load ptr, ptr %8, align 8, !tbaa !32
  %35 = getelementptr inbounds nuw %struct.anon.0, ptr %34, i32 0, i32 2
  %36 = load i8, ptr %35, align 1, !tbaa !11
  %37 = zext i8 %36 to i32
  %38 = icmp eq i32 %37, 82
  br label %39

39:                                               ; preds = %33, %3
  %40 = phi i1 [ true, %3 ], [ %38, %33 ]
  %41 = zext i1 %40 to i32
  store i32 %41, ptr %10, align 4, !tbaa !9
  %42 = load ptr, ptr %9, align 8, !tbaa !32
  %43 = getelementptr inbounds nuw %struct.anon.0, ptr %42, i32 0, i32 2
  %44 = load i8, ptr %43, align 1, !tbaa !11
  %45 = zext i8 %44 to i32
  %46 = icmp eq i32 %45, 81
  br i1 %46, label %53, label %47

47:                                               ; preds = %39
  %48 = load ptr, ptr %9, align 8, !tbaa !32
  %49 = getelementptr inbounds nuw %struct.anon.0, ptr %48, i32 0, i32 2
  %50 = load i8, ptr %49, align 1, !tbaa !11
  %51 = zext i8 %50 to i32
  %52 = icmp eq i32 %51, 82
  br label %53

53:                                               ; preds = %47, %39
  %54 = phi i1 [ true, %39 ], [ %52, %47 ]
  %55 = zext i1 %54 to i32
  store i32 %55, ptr %11, align 4, !tbaa !9
  %56 = load i32, ptr %10, align 4, !tbaa !9
  %57 = icmp ne i32 %56, 0
  br i1 %57, label %58, label %62

58:                                               ; preds = %53
  %59 = load i32, ptr %11, align 4, !tbaa !9
  %60 = icmp ne i32 %59, 0
  br i1 %60, label %61, label %62

61:                                               ; preds = %58
  store i32 0, ptr %4, align 4
  store i32 1, ptr %12, align 4
  br label %79

62:                                               ; preds = %58, %53
  %63 = load i32, ptr %11, align 4, !tbaa !9
  %64 = icmp ne i32 %63, 0
  br i1 %64, label %65, label %69

65:                                               ; preds = %62
  call void @llvm.lifetime.start.p0(i64 8, ptr %13) #5
  %66 = load ptr, ptr %8, align 8, !tbaa !32
  store ptr %66, ptr %13, align 8, !tbaa !32
  %67 = load ptr, ptr %9, align 8, !tbaa !32
  store ptr %67, ptr %8, align 8, !tbaa !32
  %68 = load ptr, ptr %13, align 8, !tbaa !32
  store ptr %68, ptr %9, align 8, !tbaa !32
  call void @llvm.lifetime.end.p0(i64 8, ptr %13) #5
  br label %74

69:                                               ; preds = %62
  %70 = load i32, ptr %10, align 4, !tbaa !9
  %71 = icmp ne i32 %70, 0
  br i1 %71, label %73, label %72

72:                                               ; preds = %69
  store i32 1, ptr %4, align 4
  store i32 1, ptr %12, align 4
  br label %79

73:                                               ; preds = %69
  br label %74

74:                                               ; preds = %73, %65
  %75 = load ptr, ptr %5, align 8, !tbaa !4
  %76 = load ptr, ptr %8, align 8, !tbaa !32
  %77 = load ptr, ptr %9, align 8, !tbaa !32
  %78 = call i32 @aa_escape(ptr noundef %75, ptr noundef %76, ptr noundef %77)
  store i32 %78, ptr %4, align 4
  store i32 1, ptr %12, align 4
  br label %79

79:                                               ; preds = %74, %72, %61
  call void @llvm.lifetime.end.p0(i64 4, ptr %11) #5
  call void @llvm.lifetime.end.p0(i64 4, ptr %10) #5
  call void @llvm.lifetime.end.p0(i64 8, ptr %9) #5
  call void @llvm.lifetime.end.p0(i64 8, ptr %8) #5
  %80 = load i32, ptr %4, align 4
  ret i32 %80
}

; Function Attrs: nounwind uwtable
define internal i32 @aa_fref(ptr noundef %0, ptr noundef %1, ptr noundef %2) #0 {
  %4 = alloca i32, align 4
  %5 = alloca ptr, align 8
  %6 = alloca ptr, align 8
  %7 = alloca ptr, align 8
  store ptr %0, ptr %5, align 8, !tbaa !4
  store ptr %1, ptr %6, align 8, !tbaa !32
  store ptr %2, ptr %7, align 8, !tbaa !32
  %8 = load ptr, ptr %6, align 8, !tbaa !32
  %9 = getelementptr inbounds nuw %struct.anon, ptr %8, i32 0, i32 1
  %10 = load i16, ptr %9, align 2, !tbaa !11
  %11 = zext i16 %10 to i32
  %12 = load ptr, ptr %7, align 8, !tbaa !32
  %13 = getelementptr inbounds nuw %struct.anon, ptr %12, i32 0, i32 1
  %14 = load i16, ptr %13, align 2, !tbaa !11
  %15 = zext i16 %14 to i32
  %16 = icmp ne i32 %11, %15
  br i1 %16, label %17, label %18

17:                                               ; preds = %3
  store i32 0, ptr %4, align 4
  br label %53

18:                                               ; preds = %3
  %19 = load ptr, ptr %6, align 8, !tbaa !32
  %20 = getelementptr inbounds nuw %struct.anon, ptr %19, i32 0, i32 0
  %21 = load i16, ptr %20, align 8, !tbaa !11
  %22 = zext i16 %21 to i32
  %23 = load ptr, ptr %7, align 8, !tbaa !32
  %24 = getelementptr inbounds nuw %struct.anon, ptr %23, i32 0, i32 0
  %25 = load i16, ptr %24, align 8, !tbaa !11
  %26 = zext i16 %25 to i32
  %27 = icmp eq i32 %22, %26
  br i1 %27, label %28, label %29

28:                                               ; preds = %18
  store i32 2, ptr %4, align 4
  br label %53

29:                                               ; preds = %18
  %30 = load ptr, ptr %6, align 8, !tbaa !32
  %31 = getelementptr inbounds nuw %struct.anon, ptr %30, i32 0, i32 1
  %32 = load i16, ptr %31, align 2, !tbaa !11
  %33 = zext i16 %32 to i32
  %34 = icmp sge i32 %33, 5
  br i1 %34, label %35, label %52

35:                                               ; preds = %29
  %36 = load ptr, ptr %6, align 8, !tbaa !32
  %37 = getelementptr inbounds nuw %struct.anon, ptr %36, i32 0, i32 1
  %38 = load i16, ptr %37, align 2, !tbaa !11
  %39 = zext i16 %38 to i32
  %40 = icmp sle i32 %39, 10
  br i1 %40, label %41, label %52

41:                                               ; preds = %35
  %42 = load ptr, ptr %5, align 8, !tbaa !4
  %43 = load ptr, ptr %6, align 8, !tbaa !32
  %44 = getelementptr inbounds nuw %struct.anon, ptr %43, i32 0, i32 0
  %45 = load i16, ptr %44, align 8, !tbaa !11
  %46 = zext i16 %45 to i32
  %47 = load ptr, ptr %7, align 8, !tbaa !32
  %48 = getelementptr inbounds nuw %struct.anon, ptr %47, i32 0, i32 0
  %49 = load i16, ptr %48, align 8, !tbaa !11
  %50 = zext i16 %49 to i32
  %51 = call i32 @aa_table(ptr noundef %42, i32 noundef %46, i32 noundef %50)
  store i32 %51, ptr %4, align 4
  br label %53

52:                                               ; preds = %35, %29
  store i32 1, ptr %4, align 4
  br label %53

53:                                               ; preds = %52, %41, %28, %17
  %54 = load i32, ptr %4, align 4
  ret i32 %54
}

; Function Attrs: nounwind uwtable
define hidden i32 @lj_opt_fwd_fload(ptr noundef %0) #0 {
  %2 = alloca i32, align 4
  %3 = alloca ptr, align 8
  %4 = alloca i32, align 4
  %5 = alloca i32, align 4
  %6 = alloca i32, align 4
  %7 = alloca i32, align 4
  %8 = alloca ptr, align 8
  %9 = alloca i32, align 4
  %10 = alloca ptr, align 8
  store ptr %0, ptr %3, align 8, !tbaa !4
  call void @llvm.lifetime.start.p0(i64 4, ptr %4) #5
  %11 = load ptr, ptr %3, align 8, !tbaa !4
  %12 = getelementptr inbounds nuw %struct.jit_State, ptr %11, i32 0, i32 14
  %13 = getelementptr inbounds nuw %struct.FoldState, ptr %12, i32 0, i32 0
  %14 = getelementptr inbounds nuw %struct.anon, ptr %13, i32 0, i32 0
  %15 = load i16, ptr %14, align 8, !tbaa !11
  %16 = zext i16 %15 to i32
  store i32 %16, ptr %4, align 4, !tbaa !9
  call void @llvm.lifetime.start.p0(i64 4, ptr %5) #5
  %17 = load ptr, ptr %3, align 8, !tbaa !4
  %18 = getelementptr inbounds nuw %struct.jit_State, ptr %17, i32 0, i32 14
  %19 = getelementptr inbounds nuw %struct.FoldState, ptr %18, i32 0, i32 0
  %20 = getelementptr inbounds nuw %struct.anon, ptr %19, i32 0, i32 1
  %21 = load i16, ptr %20, align 2, !tbaa !11
  %22 = zext i16 %21 to i32
  store i32 %22, ptr %5, align 4, !tbaa !9
  call void @llvm.lifetime.start.p0(i64 4, ptr %6) #5
  %23 = load i32, ptr %4, align 4, !tbaa !9
  store i32 %23, ptr %6, align 4, !tbaa !9
  call void @llvm.lifetime.start.p0(i64 4, ptr %7) #5
  %24 = load ptr, ptr %3, align 8, !tbaa !4
  %25 = getelementptr inbounds nuw %struct.jit_State, ptr %24, i32 0, i32 40
  %26 = getelementptr inbounds [101 x i16], ptr %25, i64 0, i64 77
  %27 = load i16, ptr %26, align 2, !tbaa !12
  %28 = zext i16 %27 to i32
  store i32 %28, ptr %7, align 4, !tbaa !9
  br label %29

29:                                               ; preds = %69, %1
  %30 = load i32, ptr %7, align 4, !tbaa !9
  %31 = load i32, ptr %4, align 4, !tbaa !9
  %32 = icmp ugt i32 %30, %31
  br i1 %32, label %33, label %70

33:                                               ; preds = %29
  call void @llvm.lifetime.start.p0(i64 8, ptr %8) #5
  %34 = load ptr, ptr %3, align 8, !tbaa !4
  %35 = getelementptr inbounds nuw %struct.jit_State, ptr %34, i32 0, i32 0
  %36 = getelementptr inbounds nuw %struct.GCtrace, ptr %35, i32 0, i32 7
  %37 = load ptr, ptr %36, align 8, !tbaa !14
  %38 = load i32, ptr %7, align 4, !tbaa !9
  %39 = zext i32 %38 to i64
  %40 = getelementptr inbounds nuw %union.IRIns, ptr %37, i64 %39
  store ptr %40, ptr %8, align 8, !tbaa !32
  %41 = load ptr, ptr %3, align 8, !tbaa !4
  %42 = load ptr, ptr %3, align 8, !tbaa !4
  %43 = getelementptr inbounds nuw %struct.jit_State, ptr %42, i32 0, i32 14
  %44 = getelementptr inbounds nuw %struct.FoldState, ptr %43, i32 0, i32 0
  %45 = load ptr, ptr %3, align 8, !tbaa !4
  %46 = getelementptr inbounds nuw %struct.jit_State, ptr %45, i32 0, i32 0
  %47 = getelementptr inbounds nuw %struct.GCtrace, ptr %46, i32 0, i32 7
  %48 = load ptr, ptr %47, align 8, !tbaa !14
  %49 = load ptr, ptr %8, align 8, !tbaa !32
  %50 = getelementptr inbounds nuw %struct.anon, ptr %49, i32 0, i32 0
  %51 = load i16, ptr %50, align 8, !tbaa !11
  %52 = zext i16 %51 to i64
  %53 = getelementptr inbounds nuw %union.IRIns, ptr %48, i64 %52
  %54 = call i32 @aa_fref(ptr noundef %41, ptr noundef %44, ptr noundef %53)
  switch i32 %54, label %62 [
    i32 0, label %62
    i32 1, label %55
    i32 2, label %57
  ]

55:                                               ; preds = %33
  %56 = load i32, ptr %7, align 4, !tbaa !9
  store i32 %56, ptr %6, align 4, !tbaa !9
  store i32 5, ptr %9, align 4
  br label %67

57:                                               ; preds = %33
  %58 = load ptr, ptr %8, align 8, !tbaa !32
  %59 = getelementptr inbounds nuw %struct.anon, ptr %58, i32 0, i32 1
  %60 = load i16, ptr %59, align 2, !tbaa !11
  %61 = zext i16 %60 to i32
  store i32 %61, ptr %2, align 4
  store i32 1, ptr %9, align 4
  br label %67

62:                                               ; preds = %33, %33
  %63 = load ptr, ptr %8, align 8, !tbaa !32
  %64 = getelementptr inbounds nuw %struct.anon, ptr %63, i32 0, i32 3
  %65 = load i16, ptr %64, align 2, !tbaa !11
  %66 = zext i16 %65 to i32
  store i32 %66, ptr %7, align 4, !tbaa !9
  store i32 0, ptr %9, align 4
  br label %67

67:                                               ; preds = %55, %62, %57
  call void @llvm.lifetime.end.p0(i64 8, ptr %8) #5
  %68 = load i32, ptr %9, align 4
  switch i32 %68, label %104 [
    i32 0, label %69
    i32 5, label %100
  ]

69:                                               ; preds = %67
  br label %29, !llvm.loop !62

70:                                               ; preds = %29
  %71 = load i32, ptr %5, align 4, !tbaa !9
  %72 = icmp eq i32 %71, 5
  br i1 %72, label %73, label %99

73:                                               ; preds = %70
  call void @llvm.lifetime.start.p0(i64 8, ptr %10) #5
  %74 = load ptr, ptr %3, align 8, !tbaa !4
  %75 = getelementptr inbounds nuw %struct.jit_State, ptr %74, i32 0, i32 0
  %76 = getelementptr inbounds nuw %struct.GCtrace, ptr %75, i32 0, i32 7
  %77 = load ptr, ptr %76, align 8, !tbaa !14
  %78 = load i32, ptr %4, align 4, !tbaa !9
  %79 = zext i32 %78 to i64
  %80 = getelementptr inbounds nuw %union.IRIns, ptr %77, i64 %79
  store ptr %80, ptr %10, align 8, !tbaa !32
  %81 = load ptr, ptr %10, align 8, !tbaa !32
  %82 = getelementptr inbounds nuw %struct.anon.0, ptr %81, i32 0, i32 2
  %83 = load i8, ptr %82, align 1, !tbaa !11
  %84 = zext i8 %83 to i32
  %85 = icmp eq i32 %84, 81
  br i1 %85, label %92, label %86

86:                                               ; preds = %73
  %87 = load ptr, ptr %10, align 8, !tbaa !32
  %88 = getelementptr inbounds nuw %struct.anon.0, ptr %87, i32 0, i32 2
  %89 = load i8, ptr %88, align 1, !tbaa !11
  %90 = zext i8 %89 to i32
  %91 = icmp eq i32 %90, 82
  br i1 %91, label %92, label %95

92:                                               ; preds = %86, %73
  %93 = load ptr, ptr %3, align 8, !tbaa !4
  %94 = call i32 @lj_ir_knull(ptr noundef %93, i32 noundef 11)
  store i32 %94, ptr %2, align 4
  store i32 1, ptr %9, align 4
  br label %96

95:                                               ; preds = %86
  store i32 0, ptr %9, align 4
  br label %96

96:                                               ; preds = %95, %92
  call void @llvm.lifetime.end.p0(i64 8, ptr %10) #5
  %97 = load i32, ptr %9, align 4
  switch i32 %97, label %104 [
    i32 0, label %98
  ]

98:                                               ; preds = %96
  br label %99

99:                                               ; preds = %98, %70
  br label %100

100:                                              ; preds = %99, %67
  %101 = load ptr, ptr %3, align 8, !tbaa !4
  %102 = load i32, ptr %6, align 4, !tbaa !9
  %103 = call i32 @lj_opt_cselim(ptr noundef %101, i32 noundef %102)
  store i32 %103, ptr %2, align 4
  store i32 1, ptr %9, align 4
  br label %104

104:                                              ; preds = %100, %96, %67
  call void @llvm.lifetime.end.p0(i64 4, ptr %7) #5
  call void @llvm.lifetime.end.p0(i64 4, ptr %6) #5
  call void @llvm.lifetime.end.p0(i64 4, ptr %5) #5
  call void @llvm.lifetime.end.p0(i64 4, ptr %4) #5
  %105 = load i32, ptr %2, align 4
  ret i32 %105
}