; Function Attrs: nounwind uwtable
define hidden i32 @lj_opt_fwd_fload(ptr noundef %0) local_unnamed_addr #2 {
  %2 = getelementptr inbounds nuw i8, ptr %0, i64 184
  %3 = load i16, ptr %2, align 8, !tbaa !4
  %4 = getelementptr inbounds nuw i8, ptr %0, i64 186
  %5 = load i16, ptr %4, align 2, !tbaa !4
  %.fr65 = freeze i16 %5
  %6 = getelementptr inbounds nuw i8, ptr %0, i64 556
  %.030.in56 = load i16, ptr %6, align 2, !tbaa !4
  %7 = icmp ugt i16 %.030.in56, %3
  br i1 %7, label %.lr.ph, label %._crit_edge

.lr.ph:                                           ; preds = %1
  %8 = getelementptr inbounds nuw i8, ptr %0, i64 32
  %9 = load ptr, ptr %8, align 8, !tbaa !7
  %10 = add i16 %.fr65, -5
  %or.cond.i = icmp ult i16 %10, 6
  %11 = zext i16 %3 to i64
  %12 = getelementptr inbounds nuw %union.IRIns, ptr %9, i64 %11
  %13 = getelementptr inbounds nuw i8, ptr %12, i64 5
  %14 = ptrtoint ptr %9 to i64
  br i1 %or.cond.i, label %.lr.ph.split.us, label %.lr.ph.split

.lr.ph.split.us:                                  ; preds = %.lr.ph, %.loopexit.us
  %.030.in57.us = phi i16 [ %.030.in.us, %.loopexit.us ], [ %.030.in56, %.lr.ph ]
  %15 = zext i16 %.030.in57.us to i64
  %16 = getelementptr inbounds nuw %union.IRIns, ptr %9, i64 %15
  %17 = load i16, ptr %16, align 8, !tbaa !4
  %18 = zext i16 %17 to i64
  %19 = getelementptr inbounds nuw %union.IRIns, ptr %9, i64 %18
  %20 = getelementptr inbounds nuw i8, ptr %19, i64 2
  %21 = load i16, ptr %20, align 2, !tbaa !4
  %.not.i.us = icmp eq i16 %.fr65, %21
  br i1 %.not.i.us, label %22, label %.loopexit.us

22:                                               ; preds = %.lr.ph.split.us
  %23 = load i16, ptr %19, align 8, !tbaa !4
  %24 = icmp eq i16 %3, %23
  br i1 %24, label %.thread, label %25

25:                                               ; preds = %22
  %26 = zext i16 %23 to i64
  %27 = getelementptr inbounds nuw %union.IRIns, ptr %9, i64 %26
  %28 = load i8, ptr %13, align 1, !tbaa !4
  %29 = add i8 %28, -81
  %30 = getelementptr inbounds nuw i8, ptr %27, i64 5
  %31 = load i8, ptr %30, align 1, !tbaa !4
  %32 = add i8 %31, -81
  %33 = or i8 %32, %29
  %or.cond.i.i.us = icmp ult i8 %33, 2
  br i1 %or.cond.i.i.us, label %.loopexit.us, label %34

34:                                               ; preds = %25
  %switch.i.i.us = icmp ult i8 %32, 2
  br i1 %switch.i.i.us, label %36, label %35

35:                                               ; preds = %34
  %switch24.i.i.us = icmp ult i8 %29, 2
  br i1 %switch24.i.i.us, label %36, label %.thread42

36:                                               ; preds = %35, %34
  %.020.i.i.us = phi ptr [ %12, %34 ], [ %27, %35 ]
  %.019.i.i.us = phi ptr [ %27, %34 ], [ %12, %35 ]
  %37 = ptrtoint ptr %.019.i.i.us to i64
  %38 = sub i64 %37, %14
  %39 = lshr exact i64 %38, 3
  %40 = trunc i64 %39 to i32
  %.0121.i.i.i.us = getelementptr inbounds nuw i8, ptr %.019.i.i.us, i64 8
  %41 = icmp ult ptr %.0121.i.i.i.us, %.020.i.i.us
  br i1 %41, label %.lr.ph.i.i.i.us, label %.loopexit.us

.lr.ph.i.i.i.us:                                  ; preds = %36, %49
  %.0123.i.i.i.us = phi ptr [ %.012.i.i.i.us, %49 ], [ %.0121.i.i.i.us, %36 ]
  %.pn2.i.i.i.us = phi ptr [ %.0123.i.i.i.us, %49 ], [ %.019.i.i.us, %36 ]
  %42 = getelementptr inbounds nuw i8, ptr %.pn2.i.i.i.us, i64 10
  %43 = load i16, ptr %42, align 2, !tbaa !4
  %44 = zext i16 %43 to i32
  %45 = icmp eq i32 %44, %40
  br i1 %45, label %46, label %49

46:                                               ; preds = %.lr.ph.i.i.i.us
  %47 = getelementptr inbounds nuw i8, ptr %.pn2.i.i.i.us, i64 13
  %48 = load i8, ptr %47, align 1, !tbaa !4
  %.off.i.i.i.us = add i8 %48, -74
  %switch.i.i.i.us = icmp ult i8 %.off.i.i.i.us, 4
  br i1 %switch.i.i.i.us, label %.thread42, label %49

49:                                               ; preds = %46, %.lr.ph.i.i.i.us
  %.012.i.i.i.us = getelementptr inbounds nuw i8, ptr %.0123.i.i.i.us, i64 8
  %50 = icmp ult ptr %.012.i.i.i.us, %.020.i.i.us
  br i1 %50, label %.lr.ph.i.i.i.us, label %.loopexit.us, !llvm.loop !28

.loopexit.us:                                     ; preds = %49, %36, %25, %.lr.ph.split.us
  %51 = getelementptr inbounds nuw i8, ptr %16, i64 6
  %.030.in.us = load i16, ptr %51, align 2, !tbaa !4
  %52 = icmp ugt i16 %.030.in.us, %3
  br i1 %52, label %.lr.ph.split.us, label %._crit_edge

.lr.ph.split:                                     ; preds = %.lr.ph, %68
  %.030.in57 = phi i16 [ %.030.in, %68 ], [ %.030.in56, %.lr.ph ]
  %53 = zext i16 %.030.in57 to i64
  %54 = getelementptr inbounds nuw %union.IRIns, ptr %9, i64 %53
  %55 = load i16, ptr %54, align 8, !tbaa !4
  %56 = zext i16 %55 to i64
  %57 = getelementptr inbounds nuw %union.IRIns, ptr %9, i64 %56
  %58 = getelementptr inbounds nuw i8, ptr %57, i64 2
  %59 = load i16, ptr %58, align 2, !tbaa !4
  %.not.i = icmp eq i16 %.fr65, %59
  br i1 %.not.i, label %60, label %68

60:                                               ; preds = %.lr.ph.split
  %61 = load i16, ptr %57, align 8, !tbaa !4
  %62 = icmp eq i16 %3, %61
  br i1 %62, label %.thread, label %.thread42

.thread:                                          ; preds = %22, %60
  %63 = phi i64 [ %53, %60 ], [ %15, %22 ]
  %64 = getelementptr inbounds nuw %union.IRIns, ptr %9, i64 %63
  %65 = getelementptr inbounds nuw i8, ptr %64, i64 2
  %66 = load i16, ptr %65, align 2, !tbaa !4
  %67 = zext i16 %66 to i32
  br label %82

68:                                               ; preds = %.lr.ph.split
  %69 = getelementptr inbounds nuw i8, ptr %54, i64 6
  %.030.in = load i16, ptr %69, align 2, !tbaa !4
  %70 = icmp ugt i16 %.030.in, %3
  br i1 %70, label %.lr.ph.split, label %._crit_edge

._crit_edge:                                      ; preds = %68, %.loopexit.us, %1
  %71 = icmp eq i16 %.fr65, 5
  br i1 %71, label %72, label %.thread42

72:                                               ; preds = %._crit_edge
  %73 = getelementptr inbounds nuw i8, ptr %0, i64 32
  %74 = load ptr, ptr %73, align 8, !tbaa !7
  %75 = zext i16 %3 to i64
  %76 = getelementptr inbounds nuw %union.IRIns, ptr %74, i64 %75
  %77 = getelementptr inbounds nuw i8, ptr %76, i64 5
  %78 = load i8, ptr %77, align 1, !tbaa !4
  %.off = add i8 %78, -81
  %switch = icmp ult i8 %.off, 2
  br i1 %switch, label %79, label %.thread42

79:                                               ; preds = %72
  %80 = tail call i32 @lj_ir_knull(ptr noundef nonnull %0, i32 noundef 11) #6
  br label %82

.thread42:                                        ; preds = %35, %46, %60, %72, %._crit_edge
  %.229.in = phi i16 [ %3, %._crit_edge ], [ %3, %72 ], [ %.030.in57, %60 ], [ %.030.in57.us, %46 ], [ %.030.in57.us, %35 ]
  %.229 = zext i16 %.229.in to i32
  %81 = tail call i32 @lj_opt_cselim(ptr noundef %0, i32 noundef %.229) #6
  br label %82

82:                                               ; preds = %79, %.thread, %.thread42
  %.2 = phi i32 [ %81, %.thread42 ], [ %80, %79 ], [ %67, %.thread ]
  ret i32 %.2
}